target datalayout = "e-m:e-p270:32:32-p271:32:32-p272:64:64-i64:64-i128:128-f80:128-n8:16:32:64-S128"
target triple = "x86_64-pc-linux-gnu"

%struct._object = type { %union.anon, ptr }
%union.anon = type { i64 }
%struct.PyVarObject = type { %struct._object, i64 }
%struct.arraydescr = type { i8, i32, ptr, ptr, ptr, ptr, i32, i32 }
%struct.arrayobject = type { %struct.PyVarObject, ptr, i64, ptr, ptr, i64 }

@_Py_NoneStruct = external global %struct._object, align 8

; Function Attrs: inlinehint nounwind uwtable
define internal i64 @Py_SIZE(ptr noundef %0) #3 {
  %2 = alloca ptr, align 8
  store ptr %0, ptr %2, align 8, !tbaa !3
  %3 = load ptr, ptr %2, align 8, !tbaa !3
  %4 = getelementptr inbounds nuw %struct.PyVarObject, ptr %3, i32 0, i32 1
  %5 = load i64, ptr %4, align 8, !tbaa !62
  ret i64 %5
}

; Function Attrs: nounwind uwtable
define internal ptr @array_array_reverse_impl(ptr noundef %0) #0 {
  %2 = alloca ptr, align 8
  %3 = alloca i64, align 8
  %4 = alloca ptr, align 8
  %5 = alloca ptr, align 8
  %6 = alloca [256 x i8], align 16
  store ptr %0, ptr %2, align 8, !tbaa !68
  call void @llvm.lifetime.start.p0(i64 8, ptr %3) #8
  %7 = load ptr, ptr %2, align 8, !tbaa !68
  %8 = getelementptr inbounds nuw %struct.arrayobject, ptr %7, i32 0, i32 3
  %9 = load ptr, ptr %8, align 8, !tbaa !99
  %10 = getelementptr inbounds nuw %struct.arraydescr, ptr %9, i32 0, i32 1
  %11 = load i32, ptr %10, align 4, !tbaa !52
  %12 = sext i32 %11 to i64
  store i64 %12, ptr %3, align 8, !tbaa !21
  call void @llvm.lifetime.start.p0(i64 8, ptr %4) #8
  call void @llvm.lifetime.start.p0(i64 8, ptr %5) #8
  call void @llvm.lifetime.start.p0(i64 256, ptr %6) #8
  %13 = load ptr, ptr %2, align 8, !tbaa !68
  %14 = call i64 @Py_SIZE(ptr noundef %13)
  %15 = icmp sgt i64 %14, 1
  br i1 %15, label %16, label %52

16:                                               ; preds = %1
  %17 = load ptr, ptr %2, align 8, !tbaa !68
  %18 = getelementptr inbounds nuw %struct.arrayobject, ptr %17, i32 0, i32 1
  %19 = load ptr, ptr %18, align 8, !tbaa !70
  store ptr %19, ptr %4, align 8, !tbaa !47
  %20 = load ptr, ptr %2, align 8, !tbaa !68
  %21 = getelementptr inbounds nuw %struct.arrayobject, ptr %20, i32 0, i32 1
  %22 = load ptr, ptr %21, align 8, !tbaa !70
  %23 = load ptr, ptr %2, align 8, !tbaa !68
  %24 = call i64 @Py_SIZE(ptr noundef %23)
  %25 = sub i64 %24, 1
  %26 = load i64, ptr %3, align 8, !tbaa !21
  %27 = mul i64 %25, %26
  %28 = getelementptr i8, ptr %22, i64 %27
  store ptr %28, ptr %5, align 8, !tbaa !47
  br label %29

29:                                               ; preds = %43, %16
  %30 = load ptr, ptr %4, align 8, !tbaa !47
  %31 = load ptr, ptr %5, align 8, !tbaa !47
  %32 = icmp ult ptr %30, %31
  br i1 %32, label %33, label %51

33:                                               ; preds = %29
  %34 = getelementptr inbounds [256 x i8], ptr %6, i64 0, i64 0
  %35 = load ptr, ptr %4, align 8, !tbaa !47
  %36 = load i64, ptr %3, align 8, !tbaa !21
  call void @llvm.memcpy.p0.p0.i64(ptr align 16 %34, ptr align 1 %35, i64 %36, i1 false)
  %37 = load ptr, ptr %4, align 8, !tbaa !47
  %38 = load ptr, ptr %5, align 8, !tbaa !47
  %39 = load i64, ptr %3, align 8, !tbaa !21
  call void @llvm.memcpy.p0.p0.i64(ptr align 1 %37, ptr align 1 %38, i64 %39, i1 false)
  %40 = load ptr, ptr %5, align 8, !tbaa !47
  %41 = getelementptr inbounds [256 x i8], ptr %6, i64 0, i64 0
  %42 = load i64, ptr %3, align 8, !tbaa !21
  call void @llvm.memcpy.p0.p0.i64(ptr align 1 %40, ptr align 16 %41, i64 %42, i1 false)
  br label %43

43:                                               ; preds = %33
  %44 = load i64, ptr %3, align 8, !tbaa !21
  %45 = load ptr, ptr %4, align 8, !tbaa !47
  %46 = getelementptr i8, ptr %45, i64 %44
  store ptr %46, ptr %4, align 8, !tbaa !47
  %47 = load i64, ptr %3, align 8, !tbaa !21
  %48 = load ptr, ptr %5, align 8, !tbaa !47
  %49 = sub i64 0, %47
  %50 = getelementptr i8, ptr %48, i64 %49
  store ptr %50, ptr %5, align 8, !tbaa !47
  br label %29, !llvm.loop !146

51:                                               ; preds = %29
  br label %52

52:                                               ; preds = %51, %1
  call void @llvm.lifetime.end.p0(i64 256, ptr %6) #8
  call void @llvm.lifetime.end.p0(i64 8, ptr %5) #8
  call void @llvm.lifetime.end.p0(i64 8, ptr %4) #8
  call void @llvm.lifetime.end.p0(i64 8, ptr %3) #8
  ret ptr @_Py_NoneStruct
}

; Function Attrs: nounwind uwtable
define internal ptr @array_array_reverse(ptr noundef %0, ptr noundef %1) #0 {
  %3 = alloca ptr, align 8
  %4 = alloca ptr, align 8
  store ptr %0, ptr %3, align 8, !tbaa !3
  store ptr %1, ptr %4, align 8, !tbaa !3
  %5 = load ptr, ptr %3, align 8, !tbaa !3
  %6 = call ptr @array_array_reverse_impl(ptr noundef %5)
  ret ptr %6
}