; Function Attrs: nofree norecurse nosync nounwind memory(readwrite, inaccessiblemem: none) uwtable
define internal noundef nonnull ptr @array_array_reverse(ptr noundef readonly captures(none) %0, ptr readnone captures(none) %1) #9 {
  %3 = alloca [256 x i8], align 16
  %4 = getelementptr inbounds nuw i8, ptr %0, i64 40
  %5 = load ptr, ptr %4, align 8, !tbaa !76
  %6 = getelementptr inbounds nuw i8, ptr %5, i64 4
  %7 = load i32, ptr %6, align 4, !tbaa !49
  %8 = sext i32 %7 to i64
  call void @llvm.lifetime.start.p0(i64 256, ptr nonnull %3)
  %9 = getelementptr i8, ptr %0, i64 16
  %.val19.i = load i64, ptr %9, align 8, !tbaa !40
  %10 = icmp sgt i64 %.val19.i, 1
  br i1 %10, label %11, label %array_array_reverse_impl.exit

11:                                               ; preds = %2
  %12 = getelementptr inbounds nuw i8, ptr %0, i64 24
  %13 = load ptr, ptr %12, align 8, !tbaa !53
  %14 = add nsw i64 %.val19.i, -1
  %15 = mul i64 %14, %8
  %16 = getelementptr i8, ptr %13, i64 %15
  %17 = icmp ult ptr %13, %16
  br i1 %17, label %.lr.ph.i, label %array_array_reverse_impl.exit

.lr.ph.i:                                         ; preds = %11
  %18 = sub nsw i64 0, %8
  br label %19

19:                                               ; preds = %19, %.lr.ph.i
  %.021.i = phi ptr [ %16, %.lr.ph.i ], [ %21, %19 ]
  %.01820.i = phi ptr [ %13, %.lr.ph.i ], [ %20, %19 ]
  call void @llvm.memcpy.p0.p0.i64(ptr nonnull align 16 %3, ptr align 1 %.01820.i, i64 %8, i1 false)
  tail call void @llvm.memcpy.p0.p0.i64(ptr align 1 %.01820.i, ptr nonnull align 1 %.021.i, i64 %8, i1 false)
  call void @llvm.memcpy.p0.p0.i64(ptr nonnull align 1 %.021.i, ptr nonnull align 16 %3, i64 %8, i1 false)
  %20 = getelementptr i8, ptr %.01820.i, i64 %8
  %21 = getelementptr i8, ptr %.021.i, i64 %18
  %22 = icmp ult ptr %20, %21
  br i1 %22, label %19, label %array_array_reverse_impl.exit, !llvm.loop !125

array_array_reverse_impl.exit:                    ; preds = %19, %2, %11
  call void @llvm.lifetime.end.p0(i64 256, ptr nonnull %3)
  ret ptr @_Py_NoneStruct
}